target datalayout = "e-m:e-p270:32:32-p271:32:32-p272:64:64-i64:64-i128:128-f80:128-n8:16:32:64-S128"
target triple = "x86_64-pc-linux-gnu"

%class.TimeInstant = type { %class.CompositeCounterRepresentation }
%class.CompositeCounterRepresentation = type { %class.Representation }
%class.Representation = type { %class.PairRep }
%class.PairRep = type { i64, i64 }
%class.GCTraceTimeLoggerImpl = type { %class.TimespanCallback, i8, ptr, i32, i8, %class.LogTargetHandle, %class.LogTargetHandle, i64, %class.TimeInstant }
%class.TimespanCallback = type { ptr }
%class.LogTargetHandle = type { i32, ptr }
%class.GCTraceTimeTimer = type { %class.TimespanCallback, ptr, ptr }
%class.ShenandoahPausePhase = type { %class.ShenandoahTimingsTracker, %class.GCTraceTimeWrapper, ptr }
%class.ShenandoahTimingsTracker = type { ptr, i32, i32, double }
%class.GCTraceTimeWrapper = type { [8 x i8], %class.GCTraceTimeImpl }
%class.GCTraceTimeImpl = type { %class.GCTraceTimeLoggerImpl, %class.GCTraceTimeTimer, %class.GCTraceTimeDriver }
%class.GCTraceTimeDriver = type { ptr, ptr, ptr }

@_ZN24ShenandoahTimingsTracker14_current_phaseE = hidden global i32 316, align 4

; Function Attrs: mustprogress nounwind uwtable
define linkonce_odr hidden void @_ZN7PairRepIllEC2Ev(ptr noundef nonnull align 8 dereferenceable(16) %0) unnamed_addr #1 comdat align 2 {
  %2 = alloca ptr, align 8
  store ptr %0, ptr %2, align 8
  %3 = load ptr, ptr %2, align 8
  %4 = getelementptr inbounds %class.PairRep, ptr %3, i32 0, i32 0
  store i64 0, ptr %4, align 8
  %5 = getelementptr inbounds %class.PairRep, ptr %3, i32 0, i32 1
  store i64 0, ptr %5, align 8
  ret void
}

; Function Attrs: mustprogress nounwind uwtable
define linkonce_odr hidden void @_ZN17GCTraceTimeDriver6at_endEP16TimespanCallback11TimeInstantI30CompositeCounterRepresentation29CompositeElapsedCounterSourceE(ptr noundef nonnull align 8 dereferenceable(24) %0, ptr noundef %1, i64 %2, i64 %3) #1 comdat align 2 {
  %5 = alloca %class.TimeInstant, align 8
  %6 = alloca ptr, align 8
  %7 = alloca ptr, align 8
  %8 = alloca %class.TimeInstant, align 8
  %9 = getelementptr inbounds { i64, i64 }, ptr %5, i32 0, i32 0
  store i64 %2, ptr %9, align 8
  %10 = getelementptr inbounds { i64, i64 }, ptr %5, i32 0, i32 1
  store i64 %3, ptr %10, align 8
  store ptr %0, ptr %6, align 8
  store ptr %1, ptr %7, align 8
  %11 = load ptr, ptr %7, align 8
  %12 = icmp ne ptr %11, null
  br i1 %12, label %13, label %22

13:                                               ; preds = %4
  %14 = load ptr, ptr %7, align 8
  call void @llvm.memcpy.p0.p0.i64(ptr align 8 %8, ptr align 8 %5, i64 16, i1 false)
  %15 = getelementptr inbounds { i64, i64 }, ptr %8, i32 0, i32 0
  %16 = load i64, ptr %15, align 8
  %17 = getelementptr inbounds { i64, i64 }, ptr %8, i32 0, i32 1
  %18 = load i64, ptr %17, align 8
  %19 = load ptr, ptr %14, align 8
  %20 = getelementptr inbounds ptr, ptr %19, i64 1
  %21 = load ptr, ptr %20, align 8
  call void %21(ptr noundef nonnull align 8 dereferenceable(8) %14, i64 %16, i64 %18)
  br label %22

22:                                               ; preds = %13, %4
  ret void
}

; Function Attrs: mustprogress nounwind uwtable
define linkonce_odr hidden noundef zeroext i1 @_ZNK17GCTraceTimeDriver13has_callbacksEv(ptr noundef nonnull align 8 dereferenceable(24) %0) #1 comdat align 2 {
  %2 = alloca ptr, align 8
  store ptr %0, ptr %2, align 8
  %3 = load ptr, ptr %2, align 8
  %4 = getelementptr inbounds %class.GCTraceTimeDriver, ptr %3, i32 0, i32 0
  %5 = load ptr, ptr %4, align 8
  %6 = icmp ne ptr %5, null
  br i1 %6, label %15, label %7

7:                                                ; preds = %1
  %8 = getelementptr inbounds %class.GCTraceTimeDriver, ptr %3, i32 0, i32 1
  %9 = load ptr, ptr %8, align 8
  %10 = icmp ne ptr %9, null
  br i1 %10, label %15, label %11

11:                                               ; preds = %7
  %12 = getelementptr inbounds %class.GCTraceTimeDriver, ptr %3, i32 0, i32 2
  %13 = load ptr, ptr %12, align 8
  %14 = icmp ne ptr %13, null
  br label %15

15:                                               ; preds = %11, %7, %1
  %16 = phi i1 [ true, %7 ], [ true, %1 ], [ %14, %11 ]
  ret i1 %16
}

; Function Attrs: mustprogress nounwind uwtable
define linkonce_odr hidden void @_ZN14RepresentationI29CompositeElapsedCounterSourceEC2Ev(ptr noundef nonnull align 8 dereferenceable(16) %0) unnamed_addr #1 comdat align 2 {
  %2 = alloca ptr, align 8
  store ptr %0, ptr %2, align 8
  %3 = load ptr, ptr %2, align 8
  %4 = getelementptr inbounds %class.Representation, ptr %3, i32 0, i32 0
  call void @_ZN7PairRepIllEC2Ev(ptr noundef nonnull align 8 dereferenceable(16) %4)
  ret void
}

; Function Attrs: mustprogress nounwind uwtable
define linkonce_odr hidden void @_ZN17GCTraceTimeDriverD2Ev(ptr noundef nonnull align 8 dereferenceable(24) %0) unnamed_addr #1 comdat align 2 {
  %2 = alloca ptr, align 8
  %3 = alloca %class.TimeInstant, align 8
  %4 = alloca %class.TimeInstant, align 8
  %5 = alloca %class.TimeInstant, align 8
  %6 = alloca %class.TimeInstant, align 8
  store ptr %0, ptr %2, align 8
  %7 = load ptr, ptr %2, align 8
  call void @_ZN11TimeInstantI30CompositeCounterRepresentation29CompositeElapsedCounterSourceEC2Ev(ptr noundef nonnull align 8 dereferenceable(16) %3)
  %8 = call noundef zeroext i1 @_ZNK17GCTraceTimeDriver13has_callbacksEv(ptr noundef nonnull align 8 dereferenceable(24) %7)
  br i1 %8, label %9, label %10

9:                                                ; preds = %1
  call void @_ZN11TimeInstantI30CompositeCounterRepresentation29CompositeElapsedCounterSourceE5stampEv(ptr noundef nonnull align 8 dereferenceable(16) %3)
  br label %10

10:                                               ; preds = %9, %1
  %11 = getelementptr inbounds %class.GCTraceTimeDriver, ptr %7, i32 0, i32 0
  %12 = load ptr, ptr %11, align 8
  call void @llvm.memcpy.p0.p0.i64(ptr align 8 %4, ptr align 8 %3, i64 16, i1 false)
  %13 = getelementptr inbounds { i64, i64 }, ptr %4, i32 0, i32 0
  %14 = load i64, ptr %13, align 8
  %15 = getelementptr inbounds { i64, i64 }, ptr %4, i32 0, i32 1
  %16 = load i64, ptr %15, align 8
  call void @_ZN17GCTraceTimeDriver6at_endEP16TimespanCallback11TimeInstantI30CompositeCounterRepresentation29CompositeElapsedCounterSourceE(ptr noundef nonnull align 8 dereferenceable(24) %7, ptr noundef %12, i64 %14, i64 %16)
  %17 = getelementptr inbounds %class.GCTraceTimeDriver, ptr %7, i32 0, i32 1
  %18 = load ptr, ptr %17, align 8
  call void @llvm.memcpy.p0.p0.i64(ptr align 8 %5, ptr align 8 %3, i64 16, i1 false)
  %19 = getelementptr inbounds { i64, i64 }, ptr %5, i32 0, i32 0
  %20 = load i64, ptr %19, align 8
  %21 = getelementptr inbounds { i64, i64 }, ptr %5, i32 0, i32 1
  %22 = load i64, ptr %21, align 8
  call void @_ZN17GCTraceTimeDriver6at_endEP16TimespanCallback11TimeInstantI30CompositeCounterRepresentation29CompositeElapsedCounterSourceE(ptr noundef nonnull align 8 dereferenceable(24) %7, ptr noundef %18, i64 %20, i64 %22)
  %23 = getelementptr inbounds %class.GCTraceTimeDriver, ptr %7, i32 0, i32 2
  %24 = load ptr, ptr %23, align 8
  call void @llvm.memcpy.p0.p0.i64(ptr align 8 %6, ptr align 8 %3, i64 16, i1 false)
  %25 = getelementptr inbounds { i64, i64 }, ptr %6, i32 0, i32 0
  %26 = load i64, ptr %25, align 8
  %27 = getelementptr inbounds { i64, i64 }, ptr %6, i32 0, i32 1
  %28 = load i64, ptr %27, align 8
  call void @_ZN17GCTraceTimeDriver6at_endEP16TimespanCallback11TimeInstantI30CompositeCounterRepresentation29CompositeElapsedCounterSourceE(ptr noundef nonnull align 8 dereferenceable(24) %7, ptr noundef %24, i64 %26, i64 %28)
  ret void
}

; Function Attrs: mustprogress nounwind uwtable
define linkonce_odr hidden void @_ZN30CompositeCounterRepresentationI29CompositeElapsedCounterSourceEC2Ev(ptr noundef nonnull align 8 dereferenceable(16) %0) unnamed_addr #1 comdat align 2 {
  %2 = alloca ptr, align 8
  store ptr %0, ptr %2, align 8
  %3 = load ptr, ptr %2, align 8
  call void @_ZN14RepresentationI29CompositeElapsedCounterSourceEC2Ev(ptr noundef nonnull align 8 dereferenceable(16) %3)
  ret void
}

; Function Attrs: mustprogress nounwind uwtable
define linkonce_odr hidden void @_ZN15GCTraceTimeImplD2Ev(ptr noundef nonnull align 8 dereferenceable(136) %0) unnamed_addr #1 comdat align 2 {
  %2 = alloca ptr, align 8
  store ptr %0, ptr %2, align 8
  %3 = load ptr, ptr %2, align 8
  %4 = getelementptr inbounds %class.GCTraceTimeImpl, ptr %3, i32 0, i32 2
  call void @_ZN17GCTraceTimeDriverD2Ev(ptr noundef nonnull align 8 dereferenceable(24) %4) #6
  ret void
}

; Function Attrs: mustprogress nounwind uwtable
define linkonce_odr hidden void @_ZN11TimeInstantI30CompositeCounterRepresentation29CompositeElapsedCounterSourceE5stampEv(ptr noundef nonnull align 8 dereferenceable(16) %0) #1 comdat align 2 {
  %2 = alloca ptr, align 8
  %3 = alloca %class.PairRep, align 8
  store ptr %0, ptr %2, align 8
  %4 = load ptr, ptr %2, align 8
  %5 = call { i64, i64 } @_ZN29CompositeElapsedCounterSource3nowEv()
  %6 = getelementptr inbounds { i64, i64 }, ptr %3, i32 0, i32 0
  %7 = extractvalue { i64, i64 } %5, 0
  store i64 %7, ptr %6, align 8
  %8 = getelementptr inbounds { i64, i64 }, ptr %3, i32 0, i32 1
  %9 = extractvalue { i64, i64 } %5, 1
  store i64 %9, ptr %8, align 8
  %10 = getelementptr inbounds %class.Representation, ptr %4, i32 0, i32 0
  call void @llvm.memcpy.p0.p0.i64(ptr align 8 %10, ptr align 8 %3, i64 16, i1 false)
  ret void
}

; Function Attrs: mustprogress nounwind uwtable
define linkonce_odr hidden void @_ZN11TimeInstantI30CompositeCounterRepresentation29CompositeElapsedCounterSourceEC2Ev(ptr noundef nonnull align 8 dereferenceable(16) %0) unnamed_addr #1 comdat align 2 {
  %2 = alloca ptr, align 8
  store ptr %0, ptr %2, align 8
  %3 = load ptr, ptr %2, align 8
  call void @_ZN30CompositeCounterRepresentationI29CompositeElapsedCounterSourceEC2Ev(ptr noundef nonnull align 8 dereferenceable(16) %3)
  ret void
}

; Function Attrs: mustprogress nounwind uwtable
define hidden void @_ZN24ShenandoahTimingsTrackerD2Ev(ptr noundef nonnull align 8 dereferenceable(24) %0) unnamed_addr #1 align 2 {
  %2 = alloca ptr, align 8
  store ptr %0, ptr %2, align 8
  %3 = load ptr, ptr %2, align 8
  %4 = getelementptr inbounds %class.ShenandoahTimingsTracker, ptr %3, i32 0, i32 0
  %5 = load ptr, ptr %4, align 8
  %6 = getelementptr inbounds %class.ShenandoahTimingsTracker, ptr %3, i32 0, i32 1
  %7 = load i32, ptr %6, align 8
  %8 = call noundef double @_ZN2os11elapsedTimeEv()
  %9 = getelementptr inbounds %class.ShenandoahTimingsTracker, ptr %3, i32 0, i32 3
  %10 = load double, ptr %9, align 8
  %11 = fsub double %8, %10
  call void @_ZN22ShenandoahPhaseTimings17record_phase_timeENS_5PhaseEd(ptr noundef nonnull align 8 dereferenceable(30352) %5, i32 noundef %7, double noundef %11)
  %12 = getelementptr inbounds %class.ShenandoahTimingsTracker, ptr %3, i32 0, i32 2
  %13 = load i32, ptr %12, align 4
  store i32 %13, ptr @_ZN24ShenandoahTimingsTracker14_current_phaseE, align 4
  ret void
}

; Function Attrs: mustprogress nounwind uwtable
define linkonce_odr hidden void @_ZN18GCTraceTimeWrapperILN8LogLevel4typeE3ELN6LogTag4typeE49ELS3_0ELS3_0ELS3_0ELS3_0ELS3_0EED2Ev(ptr noundef nonnull align 8 dereferenceable(144) %0) unnamed_addr #1 comdat align 2 {
  %2 = alloca ptr, align 8
  store ptr %0, ptr %2, align 8
  %3 = load ptr, ptr %2, align 8
  %4 = getelementptr inbounds %class.GCTraceTimeWrapper, ptr %3, i32 0, i32 1
  call void @_ZN15GCTraceTimeImplD2Ev(ptr noundef nonnull align 8 dereferenceable(136) %4) #6
  ret void
}

; Function Attrs: mustprogress nounwind uwtable
define linkonce_odr hidden { i64, i64 } @_ZN11TimeInstantI30CompositeCounterRepresentation29CompositeElapsedCounterSourceE3nowEv() #1 comdat align 2 {
  %1 = alloca %class.TimeInstant, align 8
  call void @_ZN11TimeInstantI30CompositeCounterRepresentation29CompositeElapsedCounterSourceEC2Ev(ptr noundef nonnull align 8 dereferenceable(16) %1)
  call void @_ZN11TimeInstantI30CompositeCounterRepresentation29CompositeElapsedCounterSourceE5stampEv(ptr noundef nonnull align 8 dereferenceable(16) %1)
  %2 = getelementptr inbounds %class.TimeInstant, ptr %1, i32 0, i32 0
  %3 = getelementptr inbounds %class.CompositeCounterRepresentation, ptr %2, i32 0, i32 0
  %4 = getelementptr inbounds %class.Representation, ptr %3, i32 0, i32 0
  %5 = load { i64, i64 }, ptr %4, align 8
  ret { i64, i64 } %5
}

; Function Attrs: mustprogress nounwind uwtable
define hidden void @_ZN20ShenandoahPausePhaseD2Ev(ptr noundef nonnull align 8 dereferenceable(176) %0) unnamed_addr #1 align 2 {
  %2 = alloca ptr, align 8
  %3 = alloca %class.TimeInstant, align 8
  store ptr %0, ptr %2, align 8
  %4 = load ptr, ptr %2, align 8
  %5 = getelementptr inbounds %class.ShenandoahPausePhase, ptr %4, i32 0, i32 2
  %6 = load ptr, ptr %5, align 8
  %7 = call { i64, i64 } @_ZN11TimeInstantI30CompositeCounterRepresentation29CompositeElapsedCounterSourceE3nowEv()
  %8 = getelementptr inbounds %class.TimeInstant, ptr %3, i32 0, i32 0
  %9 = getelementptr inbounds %class.CompositeCounterRepresentation, ptr %8, i32 0, i32 0
  %10 = getelementptr inbounds %class.Representation, ptr %9, i32 0, i32 0
  %11 = getelementptr inbounds { i64, i64 }, ptr %10, i32 0, i32 0
  %12 = extractvalue { i64, i64 } %7, 0
  store i64 %12, ptr %11, align 8
  %13 = getelementptr inbounds { i64, i64 }, ptr %10, i32 0, i32 1
  %14 = extractvalue { i64, i64 } %7, 1
  store i64 %14, ptr %13, align 8
  call void @_ZN7GCTimer21register_gc_pause_endERK11TimeInstantI30CompositeCounterRepresentation29CompositeElapsedCounterSourceE(ptr noundef nonnull align 8 dereferenceable(112) %6, ptr noundef nonnull align 8 dereferenceable(16) %3)
  %15 = getelementptr inbounds %class.ShenandoahPausePhase, ptr %4, i32 0, i32 1
  call void @_ZN18GCTraceTimeWrapperILN8LogLevel4typeE3ELN6LogTag4typeE49ELS3_0ELS3_0ELS3_0ELS3_0ELS3_0EED2Ev(ptr noundef nonnull align 8 dereferenceable(144) %15) #6
  call void @_ZN24ShenandoahTimingsTrackerD2Ev(ptr noundef nonnull align 8 dereferenceable(24) %4) #6
  ret void
}