; Function Attrs: mustprogress nounwind uwtable
define hidden void @_ZN20ShenandoahPausePhaseD2Ev(ptr nocapture noundef nonnull readonly align 8 dereferenceable(176) %0) unnamed_addr #0 align 2 {
  %2 = alloca %class.TimeInstant, align 8
  %3 = getelementptr inbounds i8, ptr %0, i64 168
  %4 = load ptr, ptr %3, align 8
  %5 = tail call { i64, i64 } @_ZN29CompositeElapsedCounterSource3nowEv() #12
  %6 = extractvalue { i64, i64 } %5, 0
  store i64 %6, ptr %2, align 8
  %7 = getelementptr inbounds i8, ptr %2, i64 8
  %8 = extractvalue { i64, i64 } %5, 1
  store i64 %8, ptr %7, align 8
  call void @_ZN7GCTimer21register_gc_pause_endERK11TimeInstantI30CompositeCounterRepresentation29CompositeElapsedCounterSourceE(ptr noundef nonnull align 8 dereferenceable(112) %4, ptr noundef nonnull align 8 dereferenceable(16) %2) #12
  %9 = getelementptr inbounds i8, ptr %0, i64 144
  %10 = load ptr, ptr %9, align 8
  %.not.i.i.i.i = icmp ne ptr %10, null
  %11 = getelementptr inbounds i8, ptr %0, i64 152
  %12 = load ptr, ptr %11, align 8
  %.not1.i.i.i.i = icmp ne ptr %12, null
  %or.cond.i.not16.i.i.i = select i1 %.not.i.i.i.i, i1 true, i1 %.not1.i.i.i.i
  %13 = getelementptr inbounds i8, ptr %0, i64 160
  %14 = load ptr, ptr %13, align 8
  %15 = icmp ne ptr %14, null
  %or.cond.i.i.i = select i1 %or.cond.i.not16.i.i.i, i1 true, i1 %15
  br i1 %or.cond.i.i.i, label %16, label %_ZN17GCTraceTimeDriver6at_endEP16TimespanCallback11TimeInstantI30CompositeCounterRepresentation29CompositeElapsedCounterSourceE.exit.i.i.i

16:                                               ; preds = %1
  %17 = call { i64, i64 } @_ZN29CompositeElapsedCounterSource3nowEv() #12
  %18 = extractvalue { i64, i64 } %17, 0
  %19 = extractvalue { i64, i64 } %17, 1
  %.pre.i.i.i = load ptr, ptr %9, align 8
  %.not.i5.i.i.i = icmp eq ptr %.pre.i.i.i, null
  br i1 %.not.i5.i.i.i, label %_ZN17GCTraceTimeDriver6at_endEP16TimespanCallback11TimeInstantI30CompositeCounterRepresentation29CompositeElapsedCounterSourceE.exit.i.i.i, label %20

20:                                               ; preds = %16
  %21 = load ptr, ptr %.pre.i.i.i, align 8
  %22 = getelementptr inbounds i8, ptr %21, i64 8
  %23 = load ptr, ptr %22, align 8
  call void %23(ptr noundef nonnull align 8 dereferenceable(8) %.pre.i.i.i, i64 %18, i64 %19) #12
  br label %_ZN17GCTraceTimeDriver6at_endEP16TimespanCallback11TimeInstantI30CompositeCounterRepresentation29CompositeElapsedCounterSourceE.exit.i.i.i

_ZN17GCTraceTimeDriver6at_endEP16TimespanCallback11TimeInstantI30CompositeCounterRepresentation29CompositeElapsedCounterSourceE.exit.i.i.i: ; preds = %20, %16, %1
  %.sroa.5.021.i.i.i = phi i64 [ %19, %16 ], [ %19, %20 ], [ 0, %1 ]
  %.sroa.0.020.i.i.i = phi i64 [ %18, %16 ], [ %18, %20 ], [ 0, %1 ]
  %24 = load ptr, ptr %11, align 8
  %.not.i6.i.i.i = icmp eq ptr %24, null
  br i1 %.not.i6.i.i.i, label %_ZN17GCTraceTimeDriver6at_endEP16TimespanCallback11TimeInstantI30CompositeCounterRepresentation29CompositeElapsedCounterSourceE.exit7.i.i.i, label %25

25:                                               ; preds = %_ZN17GCTraceTimeDriver6at_endEP16TimespanCallback11TimeInstantI30CompositeCounterRepresentation29CompositeElapsedCounterSourceE.exit.i.i.i
  %26 = load ptr, ptr %24, align 8
  %27 = getelementptr inbounds i8, ptr %26, i64 8
  %28 = load ptr, ptr %27, align 8
  call void %28(ptr noundef nonnull align 8 dereferenceable(8) %24, i64 %.sroa.0.020.i.i.i, i64 %.sroa.5.021.i.i.i) #12
  br label %_ZN17GCTraceTimeDriver6at_endEP16TimespanCallback11TimeInstantI30CompositeCounterRepresentation29CompositeElapsedCounterSourceE.exit7.i.i.i

_ZN17GCTraceTimeDriver6at_endEP16TimespanCallback11TimeInstantI30CompositeCounterRepresentation29CompositeElapsedCounterSourceE.exit7.i.i.i: ; preds = %25, %_ZN17GCTraceTimeDriver6at_endEP16TimespanCallback11TimeInstantI30CompositeCounterRepresentation29CompositeElapsedCounterSourceE.exit.i.i.i
  %29 = load ptr, ptr %13, align 8
  %.not.i8.i.i.i = icmp eq ptr %29, null
  br i1 %.not.i8.i.i.i, label %_ZN18GCTraceTimeWrapperILN8LogLevel4typeE3ELN6LogTag4typeE49ELS3_0ELS3_0ELS3_0ELS3_0ELS3_0EED2Ev.exit, label %30

30:                                               ; preds = %_ZN17GCTraceTimeDriver6at_endEP16TimespanCallback11TimeInstantI30CompositeCounterRepresentation29CompositeElapsedCounterSourceE.exit7.i.i.i
  %31 = load ptr, ptr %29, align 8
  %32 = getelementptr inbounds i8, ptr %31, i64 8
  %33 = load ptr, ptr %32, align 8
  call void %33(ptr noundef nonnull align 8 dereferenceable(8) %29, i64 %.sroa.0.020.i.i.i, i64 %.sroa.5.021.i.i.i) #12
  br label %_ZN18GCTraceTimeWrapperILN8LogLevel4typeE3ELN6LogTag4typeE49ELS3_0ELS3_0ELS3_0ELS3_0ELS3_0EED2Ev.exit

_ZN18GCTraceTimeWrapperILN8LogLevel4typeE3ELN6LogTag4typeE49ELS3_0ELS3_0ELS3_0ELS3_0ELS3_0EED2Ev.exit: ; preds = %_ZN17GCTraceTimeDriver6at_endEP16TimespanCallback11TimeInstantI30CompositeCounterRepresentation29CompositeElapsedCounterSourceE.exit7.i.i.i, %30
  %34 = load ptr, ptr %0, align 8
  %35 = getelementptr inbounds i8, ptr %0, i64 8
  %36 = load i32, ptr %35, align 8
  %37 = call noundef double @_ZN2os11elapsedTimeEv() #12
  %38 = getelementptr inbounds i8, ptr %0, i64 16
  %39 = load double, ptr %38, align 8
  %40 = fsub double %37, %39
  call void @_ZN22ShenandoahPhaseTimings17record_phase_timeENS_5PhaseEd(ptr noundef nonnull align 8 dereferenceable(30352) %34, i32 noundef %36, double noundef %40) #12
  %41 = getelementptr inbounds i8, ptr %0, i64 12
  %42 = load i32, ptr %41, align 4
  store i32 %42, ptr @_ZN24ShenandoahTimingsTracker14_current_phaseE, align 4
  ret void
}